target datalayout = "e-m:e-p270:32:32-p271:32:32-p272:64:64-i64:64-i128:128-f80:128-n8:16:32:64-S128"
target triple = "x86_64-pc-linux-gnu"

%struct.ParallelVacuumState = type { ptr, ptr, ptr, i32, ptr, ptr, ptr, ptr, ptr, ptr, i32, i32, i32, ptr, ptr, ptr, ptr, i32 }

@.str.10 = private unnamed_addr constant [47 x i8] c"while vacuuming index \22%s\22 of relation \22%s.%s\22\00", align 1
@.str.11 = private unnamed_addr constant [49 x i8] c"while cleaning up index \22%s\22 of relation \22%s.%s\22\00", align 1

; Function Attrs: nounwind uwtable
define internal void @parallel_vacuum_error_callback(ptr noundef %0) #0 {
  %2 = alloca ptr, align 8
  %3 = alloca ptr, align 8
  %4 = alloca i32, align 4
  store ptr %0, ptr %2, align 8
  call void @llvm.lifetime.start.p0(i64 8, ptr %3) #9
  %5 = load ptr, ptr %2, align 8
  store ptr %5, ptr %3, align 8
  %6 = load ptr, ptr %3, align 8
  %7 = getelementptr inbounds nuw %struct.ParallelVacuumState, ptr %6, i32 0, i32 17
  %8 = load i32, ptr %7, align 8
  switch i32 %8, label %34 [
    i32 1, label %9
    i32 2, label %21
    i32 0, label %33
    i32 3, label %33
  ]

9:                                                ; preds = %1
  %10 = call i32 @set_errcontext_domain(ptr noundef null)
  %11 = load ptr, ptr %3, align 8
  %12 = getelementptr inbounds nuw %struct.ParallelVacuumState, ptr %11, i32 0, i32 16
  %13 = load ptr, ptr %12, align 8
  %14 = load ptr, ptr %3, align 8
  %15 = getelementptr inbounds nuw %struct.ParallelVacuumState, ptr %14, i32 0, i32 14
  %16 = load ptr, ptr %15, align 8
  %17 = load ptr, ptr %3, align 8
  %18 = getelementptr inbounds nuw %struct.ParallelVacuumState, ptr %17, i32 0, i32 15
  %19 = load ptr, ptr %18, align 8
  %20 = call i32 (ptr, ...) @errcontext_msg(ptr noundef @.str.10, ptr noundef %13, ptr noundef %16, ptr noundef %19)
  br label %35

21:                                               ; preds = %1
  %22 = call i32 @set_errcontext_domain(ptr noundef null)
  %23 = load ptr, ptr %3, align 8
  %24 = getelementptr inbounds nuw %struct.ParallelVacuumState, ptr %23, i32 0, i32 16
  %25 = load ptr, ptr %24, align 8
  %26 = load ptr, ptr %3, align 8
  %27 = getelementptr inbounds nuw %struct.ParallelVacuumState, ptr %26, i32 0, i32 14
  %28 = load ptr, ptr %27, align 8
  %29 = load ptr, ptr %3, align 8
  %30 = getelementptr inbounds nuw %struct.ParallelVacuumState, ptr %29, i32 0, i32 15
  %31 = load ptr, ptr %30, align 8
  %32 = call i32 (ptr, ...) @errcontext_msg(ptr noundef @.str.11, ptr noundef %25, ptr noundef %28, ptr noundef %31)
  br label %35

33:                                               ; preds = %1, %1
  br label %34

34:                                               ; preds = %1, %33
  store i32 1, ptr %4, align 4
  br label %36

35:                                               ; preds = %21, %9
  store i32 0, ptr %4, align 4
  br label %36

36:                                               ; preds = %35, %34
  call void @llvm.lifetime.end.p0(i64 8, ptr %3) #9
  %37 = load i32, ptr %4, align 4
  switch i32 %37, label %39 [
    i32 0, label %38
    i32 1, label %38
  ]

38:                                               ; preds = %36, %36
  ret void

39:                                               ; preds = %36
  unreachable
}