; Function Attrs: nounwind uwtable
define internal void @parallel_vacuum_error_callback(ptr noundef readonly captures(none) %0) #0 {
  %2 = getelementptr inbounds nuw i8, ptr %0, i64 128
  %3 = load i32, ptr %2, align 8
  switch i32 %3, label %13 [
    i32 1, label %.sink.split
    i32 2, label %4
  ]

4:                                                ; preds = %1
  br label %.sink.split

.sink.split:                                      ; preds = %1, %4
  %.str.10.sink = phi ptr [ @.str.11, %4 ], [ @.str.10, %1 ]
  %5 = tail call i32 @set_errcontext_domain(ptr noundef null) #10
  %6 = getelementptr inbounds nuw i8, ptr %0, i64 120
  %7 = load ptr, ptr %6, align 8
  %8 = getelementptr inbounds nuw i8, ptr %0, i64 104
  %9 = load ptr, ptr %8, align 8
  %10 = getelementptr inbounds nuw i8, ptr %0, i64 112
  %11 = load ptr, ptr %10, align 8
  %12 = tail call i32 (ptr, ...) @errcontext_msg(ptr noundef nonnull %.str.10.sink, ptr noundef %7, ptr noundef %9, ptr noundef %11) #10
  br label %13

13:                                               ; preds = %.sink.split, %1
  ret void
}